target datalayout = "e-m:e-p270:32:32-p271:32:32-p272:64:64-i64:64-i128:128-f80:128-n8:16:32:64-S128"
target triple = "x86_64-pc-linux-gnu"

; Function Attrs: nounwind uwtable
define internal void @pretwiddle(ptr noundef %0, ptr noundef %1, i32 noundef %2, i32 noundef %3, i32 noundef %4, i32 noundef %5, i32 noundef %6, ptr noundef %7) #1 {
  %9 = alloca ptr, align 8
  %10 = alloca ptr, align 8
  %11 = alloca i32, align 4
  %12 = alloca i32, align 4
  %13 = alloca i32, align 4
  %14 = alloca i32, align 4
  %15 = alloca i32, align 4
  %16 = alloca ptr, align 8
  %17 = alloca ptr, align 8
  %18 = alloca ptr, align 8
  %19 = alloca ptr, align 8
  %20 = alloca i32, align 4
  %21 = alloca i32, align 4
  %22 = alloca double, align 8
  %23 = alloca double, align 8
  store ptr %0, ptr %9, align 8, !tbaa !80
  store ptr %1, ptr %10, align 8, !tbaa !80
  store i32 %2, ptr %11, align 4, !tbaa !34
  store i32 %3, ptr %12, align 4, !tbaa !34
  store i32 %4, ptr %13, align 4, !tbaa !34
  store i32 %5, ptr %14, align 4, !tbaa !34
  store i32 %6, ptr %15, align 4, !tbaa !34
  store ptr %7, ptr %16, align 8, !tbaa !84
  call void @llvm.lifetime.start.p0(i64 8, ptr %17) #12
  call void @llvm.lifetime.start.p0(i64 8, ptr %18) #12
  call void @llvm.lifetime.start.p0(i64 8, ptr %19) #12
  call void @llvm.lifetime.start.p0(i64 4, ptr %20) #12
  call void @llvm.lifetime.start.p0(i64 4, ptr %21) #12
  %24 = load ptr, ptr %10, align 8, !tbaa !80
  store ptr %24, ptr %18, align 8, !tbaa !80
  %25 = load ptr, ptr %16, align 8, !tbaa !84
  %26 = getelementptr inbounds ptr, ptr %25, i64 0
  %27 = load ptr, ptr %26, align 8, !tbaa !82
  store ptr %27, ptr %19, align 8, !tbaa !82
  store i32 0, ptr %20, align 4, !tbaa !34
  br label %28

28:                                               ; preds = %68, %8
  %29 = load i32, ptr %20, align 4, !tbaa !34
  %30 = load i32, ptr %12, align 4, !tbaa !34
  %31 = icmp slt i32 %29, %30
  br i1 %31, label %32, label %71

32:                                               ; preds = %28
  call void @llvm.lifetime.start.p0(i64 8, ptr %22) #12
  store double 0.000000e+00, ptr %22, align 8, !tbaa !78
  store i32 0, ptr %21, align 4, !tbaa !34
  br label %33

33:                                               ; preds = %55, %32
  %34 = load i32, ptr %21, align 4, !tbaa !34
  %35 = load i32, ptr %14, align 4, !tbaa !34
  %36 = icmp slt i32 %34, %35
  br i1 %36, label %37, label %58

37:                                               ; preds = %33
  %38 = load ptr, ptr %9, align 8, !tbaa !80
  %39 = load i32, ptr %21, align 4, !tbaa !34
  %40 = sext i32 %39 to i64
  %41 = getelementptr inbounds float, ptr %38, i64 %40
  %42 = load float, ptr %41, align 4, !tbaa !51
  %43 = fpext nsz float %42 to double
  %44 = load ptr, ptr %19, align 8, !tbaa !82
  %45 = load i32, ptr %21, align 4, !tbaa !34
  %46 = load i32, ptr %12, align 4, !tbaa !34
  %47 = mul nsw i32 %45, %46
  %48 = load i32, ptr %20, align 4, !tbaa !34
  %49 = add nsw i32 %47, %48
  %50 = sext i32 %49 to i64
  %51 = getelementptr inbounds double, ptr %44, i64 %50
  %52 = load double, ptr %51, align 8, !tbaa !78
  %53 = load double, ptr %22, align 8, !tbaa !78
  %54 = call nsz double @llvm.fmuladd.f64(double %43, double %52, double %53)
  store double %54, ptr %22, align 8, !tbaa !78
  br label %55

55:                                               ; preds = %37
  %56 = load i32, ptr %21, align 4, !tbaa !34
  %57 = add nsw i32 %56, 1
  store i32 %57, ptr %21, align 4, !tbaa !34
  br label %33, !llvm.loop !98

58:                                               ; preds = %33
  %59 = load double, ptr %22, align 8, !tbaa !78
  %60 = load ptr, ptr %18, align 8, !tbaa !80
  %61 = load i32, ptr %20, align 4, !tbaa !34
  %62 = sext i32 %61 to i64
  %63 = getelementptr inbounds float, ptr %60, i64 %62
  %64 = load float, ptr %63, align 4, !tbaa !51
  %65 = fpext nsz float %64 to double
  %66 = fadd nsz double %65, %59
  %67 = fptrunc nsz double %66 to float
  store float %67, ptr %63, align 4, !tbaa !51
  call void @llvm.lifetime.end.p0(i64 8, ptr %22) #12
  br label %68

68:                                               ; preds = %58
  %69 = load i32, ptr %20, align 4, !tbaa !34
  %70 = add nsw i32 %69, 1
  store i32 %70, ptr %20, align 4, !tbaa !34
  br label %28, !llvm.loop !99

71:                                               ; preds = %28
  %72 = load ptr, ptr %10, align 8, !tbaa !80
  %73 = load i32, ptr %11, align 4, !tbaa !34
  %74 = sext i32 %73 to i64
  %75 = getelementptr inbounds float, ptr %72, i64 %74
  %76 = load i32, ptr %12, align 4, !tbaa !34
  %77 = sext i32 %76 to i64
  %78 = sub i64 0, %77
  %79 = getelementptr inbounds float, ptr %75, i64 %78
  store ptr %79, ptr %18, align 8, !tbaa !80
  %80 = load ptr, ptr %16, align 8, !tbaa !84
  %81 = load i32, ptr %14, align 4, !tbaa !34
  %82 = sext i32 %81 to i64
  %83 = getelementptr inbounds ptr, ptr %80, i64 %82
  %84 = load ptr, ptr %83, align 8, !tbaa !82
  store ptr %84, ptr %19, align 8, !tbaa !82
  %85 = load ptr, ptr %9, align 8, !tbaa !80
  %86 = load i32, ptr %11, align 4, !tbaa !34
  %87 = load i32, ptr %12, align 4, !tbaa !34
  %88 = sub nsw i32 %86, %87
  %89 = load i32, ptr %13, align 4, !tbaa !34
  %90 = sdiv i32 %88, %89
  %91 = sext i32 %90 to i64
  %92 = getelementptr inbounds float, ptr %85, i64 %91
  %93 = getelementptr inbounds float, ptr %92, i64 1
  %94 = load i32, ptr %14, align 4, !tbaa !34
  %95 = sext i32 %94 to i64
  %96 = getelementptr inbounds float, ptr %93, i64 %95
  store ptr %96, ptr %17, align 8, !tbaa !80
  store i32 0, ptr %20, align 4, !tbaa !34
  br label %97

97:                                               ; preds = %137, %71
  %98 = load i32, ptr %20, align 4, !tbaa !34
  %99 = load i32, ptr %12, align 4, !tbaa !34
  %100 = icmp slt i32 %98, %99
  br i1 %100, label %101, label %140

101:                                              ; preds = %97
  call void @llvm.lifetime.start.p0(i64 8, ptr %23) #12
  store double 0.000000e+00, ptr %23, align 8, !tbaa !78
  store i32 0, ptr %21, align 4, !tbaa !34
  br label %102

102:                                              ; preds = %124, %101
  %103 = load i32, ptr %21, align 4, !tbaa !34
  %104 = load i32, ptr %15, align 4, !tbaa !34
  %105 = icmp slt i32 %103, %104
  br i1 %105, label %106, label %127

106:                                              ; preds = %102
  %107 = load ptr, ptr %17, align 8, !tbaa !80
  %108 = load i32, ptr %21, align 4, !tbaa !34
  %109 = sext i32 %108 to i64
  %110 = getelementptr inbounds float, ptr %107, i64 %109
  %111 = load float, ptr %110, align 4, !tbaa !51
  %112 = fpext nsz float %111 to double
  %113 = load ptr, ptr %19, align 8, !tbaa !82
  %114 = load i32, ptr %21, align 4, !tbaa !34
  %115 = load i32, ptr %12, align 4, !tbaa !34
  %116 = mul nsw i32 %114, %115
  %117 = load i32, ptr %20, align 4, !tbaa !34
  %118 = add nsw i32 %116, %117
  %119 = sext i32 %118 to i64
  %120 = getelementptr inbounds double, ptr %113, i64 %119
  %121 = load double, ptr %120, align 8, !tbaa !78
  %122 = load double, ptr %23, align 8, !tbaa !78
  %123 = call nsz double @llvm.fmuladd.f64(double %112, double %121, double %122)
  store double %123, ptr %23, align 8, !tbaa !78
  br label %124

124:                                              ; preds = %106
  %125 = load i32, ptr %21, align 4, !tbaa !34
  %126 = add nsw i32 %125, 1
  store i32 %126, ptr %21, align 4, !tbaa !34
  br label %102, !llvm.loop !100

127:                                              ; preds = %102
  %128 = load double, ptr %23, align 8, !tbaa !78
  %129 = load ptr, ptr %18, align 8, !tbaa !80
  %130 = load i32, ptr %20, align 4, !tbaa !34
  %131 = sext i32 %130 to i64
  %132 = getelementptr inbounds float, ptr %129, i64 %131
  %133 = load float, ptr %132, align 4, !tbaa !51
  %134 = fpext nsz float %133 to double
  %135 = fadd nsz double %134, %128
  %136 = fptrunc nsz double %135 to float
  store float %136, ptr %132, align 4, !tbaa !51
  call void @llvm.lifetime.end.p0(i64 8, ptr %23) #12
  br label %137

137:                                              ; preds = %127
  %138 = load i32, ptr %20, align 4, !tbaa !34
  %139 = add nsw i32 %138, 1
  store i32 %139, ptr %20, align 4, !tbaa !34
  br label %97, !llvm.loop !101

140:                                              ; preds = %97
  call void @llvm.lifetime.end.p0(i64 4, ptr %21) #12
  call void @llvm.lifetime.end.p0(i64 4, ptr %20) #12
  call void @llvm.lifetime.end.p0(i64 8, ptr %19) #12
  call void @llvm.lifetime.end.p0(i64 8, ptr %18) #12
  call void @llvm.lifetime.end.p0(i64 8, ptr %17) #12
  ret void
}

; Function Attrs: nounwind uwtable
define internal void @twiddle(ptr noundef %0, ptr noundef %1, i32 noundef %2, ptr noundef %3, i32 noundef %4, i32 noundef %5, i32 noundef %6, i32 noundef %7, ptr noundef %8) #1 {
  %10 = alloca ptr, align 8
  %11 = alloca ptr, align 8
  %12 = alloca i32, align 4
  %13 = alloca ptr, align 8
  %14 = alloca i32, align 4
  %15 = alloca i32, align 4
  %16 = alloca i32, align 4
  %17 = alloca i32, align 4
  %18 = alloca ptr, align 8
  %19 = alloca i32, align 4
  %20 = alloca i32, align 4
  %21 = alloca i32, align 4
  %22 = alloca i32, align 4
  %23 = alloca float, align 4
  %24 = alloca i32, align 4
  %25 = alloca ptr, align 8
  store ptr %0, ptr %10, align 8, !tbaa !80
  store ptr %1, ptr %11, align 8, !tbaa !80
  store i32 %2, ptr %12, align 4, !tbaa !34
  store ptr %3, ptr %13, align 8, !tbaa !82
  store i32 %4, ptr %14, align 4, !tbaa !34
  store i32 %5, ptr %15, align 4, !tbaa !34
  store i32 %6, ptr %16, align 4, !tbaa !34
  store i32 %7, ptr %17, align 4, !tbaa !34
  store ptr %8, ptr %18, align 8, !tbaa !84
  call void @llvm.lifetime.start.p0(i64 4, ptr %19) #12
  call void @llvm.lifetime.start.p0(i64 4, ptr %20) #12
  call void @llvm.lifetime.start.p0(i64 4, ptr %21) #12
  call void @llvm.lifetime.start.p0(i64 4, ptr %22) #12
  %26 = load i32, ptr %12, align 4, !tbaa !34
  %27 = load i32, ptr %14, align 4, !tbaa !34
  %28 = sub nsw i32 %26, %27
  %29 = load i32, ptr %15, align 4, !tbaa !34
  %30 = sdiv i32 %28, %29
  %31 = add nsw i32 %30, 1
  store i32 %31, ptr %19, align 4, !tbaa !34
  %32 = load ptr, ptr %10, align 8, !tbaa !80
  %33 = load ptr, ptr %11, align 8, !tbaa !80
  %34 = load i32, ptr %12, align 4, !tbaa !34
  %35 = load i32, ptr %14, align 4, !tbaa !34
  %36 = load i32, ptr %15, align 4, !tbaa !34
  %37 = load i32, ptr %16, align 4, !tbaa !34
  %38 = load i32, ptr %17, align 4, !tbaa !34
  %39 = load ptr, ptr %18, align 8, !tbaa !84
  call void @pretwiddle(ptr noundef %32, ptr noundef %33, i32 noundef %34, i32 noundef %35, i32 noundef %36, i32 noundef %37, i32 noundef %38, ptr noundef %39)
  %40 = load i32, ptr %14, align 4, !tbaa !34
  %41 = sub nsw i32 %40, 1
  store i32 %41, ptr %20, align 4, !tbaa !34
  store i32 0, ptr %21, align 4, !tbaa !34
  br label %42

42:                                               ; preds = %149, %9
  %43 = load i32, ptr %21, align 4, !tbaa !34
  %44 = load i32, ptr %19, align 4, !tbaa !34
  %45 = icmp slt i32 %43, %44
  br i1 %45, label %46, label %152

46:                                               ; preds = %42
  call void @llvm.lifetime.start.p0(i64 4, ptr %23) #12
  %47 = load ptr, ptr %10, align 8, !tbaa !80
  %48 = load i32, ptr %16, align 4, !tbaa !34
  %49 = load i32, ptr %21, align 4, !tbaa !34
  %50 = add nsw i32 %48, %49
  %51 = sext i32 %50 to i64
  %52 = getelementptr inbounds float, ptr %47, i64 %51
  %53 = load float, ptr %52, align 4, !tbaa !51
  store float %53, ptr %23, align 4, !tbaa !51
  call void @llvm.lifetime.start.p0(i64 4, ptr %24) #12
  %54 = load i32, ptr %12, align 4, !tbaa !34
  %55 = sub nsw i32 %54, 1
  %56 = load i32, ptr %20, align 4, !tbaa !34
  %57 = and i32 %55, %56
  store i32 %57, ptr %24, align 4, !tbaa !34
  %58 = load i32, ptr %24, align 4, !tbaa !34
  %59 = load i32, ptr %14, align 4, !tbaa !34
  %60 = icmp slt i32 %58, %59
  br i1 %60, label %61, label %118

61:                                               ; preds = %46
  call void @llvm.lifetime.start.p0(i64 8, ptr %25) #12
  %62 = load ptr, ptr %13, align 8, !tbaa !82
  store ptr %62, ptr %25, align 8, !tbaa !82
  %63 = load i32, ptr %24, align 4, !tbaa !34
  store i32 %63, ptr %22, align 4, !tbaa !34
  br label %64

64:                                               ; preds = %81, %61
  %65 = load i32, ptr %22, align 4, !tbaa !34
  %66 = icmp sge i32 %65, 0
  br i1 %66, label %67, label %84

67:                                               ; preds = %64
  %68 = load float, ptr %23, align 4, !tbaa !51
  %69 = fpext nsz float %68 to double
  %70 = load ptr, ptr %25, align 8, !tbaa !82
  %71 = getelementptr inbounds nuw double, ptr %70, i32 1
  store ptr %71, ptr %25, align 8, !tbaa !82
  %72 = load double, ptr %70, align 8, !tbaa !78
  %73 = load ptr, ptr %11, align 8, !tbaa !80
  %74 = load i32, ptr %22, align 4, !tbaa !34
  %75 = sext i32 %74 to i64
  %76 = getelementptr inbounds float, ptr %73, i64 %75
  %77 = load float, ptr %76, align 4, !tbaa !51
  %78 = fpext nsz float %77 to double
  %79 = call nsz double @llvm.fmuladd.f64(double %69, double %72, double %78)
  %80 = fptrunc nsz double %79 to float
  store float %80, ptr %76, align 4, !tbaa !51
  br label %81

81:                                               ; preds = %67
  %82 = load i32, ptr %22, align 4, !tbaa !34
  %83 = add nsw i32 %82, -1
  store i32 %83, ptr %22, align 4, !tbaa !34
  br label %64, !llvm.loop !86

84:                                               ; preds = %64
  store i32 0, ptr %22, align 4, !tbaa !34
  br label %85

85:                                               ; preds = %114, %84
  %86 = load i32, ptr %22, align 4, !tbaa !34
  %87 = load i32, ptr %14, align 4, !tbaa !34
  %88 = load i32, ptr %24, align 4, !tbaa !34
  %89 = sub nsw i32 %87, %88
  %90 = sub nsw i32 %89, 1
  %91 = icmp slt i32 %86, %90
  br i1 %91, label %92, label %117

92:                                               ; preds = %85
  %93 = load float, ptr %23, align 4, !tbaa !51
  %94 = fpext nsz float %93 to double
  %95 = load ptr, ptr %13, align 8, !tbaa !82
  %96 = load i32, ptr %24, align 4, !tbaa !34
  %97 = add nsw i32 %96, 1
  %98 = load i32, ptr %22, align 4, !tbaa !34
  %99 = add nsw i32 %97, %98
  %100 = sext i32 %99 to i64
  %101 = getelementptr inbounds double, ptr %95, i64 %100
  %102 = load double, ptr %101, align 8, !tbaa !78
  %103 = load ptr, ptr %11, align 8, !tbaa !80
  %104 = load i32, ptr %12, align 4, !tbaa !34
  %105 = load i32, ptr %22, align 4, !tbaa !34
  %106 = sub nsw i32 %104, %105
  %107 = sub nsw i32 %106, 1
  %108 = sext i32 %107 to i64
  %109 = getelementptr inbounds float, ptr %103, i64 %108
  %110 = load float, ptr %109, align 4, !tbaa !51
  %111 = fpext nsz float %110 to double
  %112 = call nsz double @llvm.fmuladd.f64(double %94, double %102, double %111)
  %113 = fptrunc nsz double %112 to float
  store float %113, ptr %109, align 4, !tbaa !51
  br label %114

114:                                              ; preds = %92
  %115 = load i32, ptr %22, align 4, !tbaa !34
  %116 = add nsw i32 %115, 1
  store i32 %116, ptr %22, align 4, !tbaa !34
  br label %85, !llvm.loop !87

117:                                              ; preds = %85
  call void @llvm.lifetime.end.p0(i64 8, ptr %25) #12
  br label %145

118:                                              ; preds = %46
  store i32 0, ptr %22, align 4, !tbaa !34
  br label %119

119:                                              ; preds = %141, %118
  %120 = load i32, ptr %22, align 4, !tbaa !34
  %121 = load i32, ptr %14, align 4, !tbaa !34
  %122 = icmp slt i32 %120, %121
  br i1 %122, label %123, label %144

123:                                              ; preds = %119
  %124 = load float, ptr %23, align 4, !tbaa !51
  %125 = fpext nsz float %124 to double
  %126 = load ptr, ptr %13, align 8, !tbaa !82
  %127 = load i32, ptr %22, align 4, !tbaa !34
  %128 = sext i32 %127 to i64
  %129 = getelementptr inbounds double, ptr %126, i64 %128
  %130 = load double, ptr %129, align 8, !tbaa !78
  %131 = load ptr, ptr %11, align 8, !tbaa !80
  %132 = load i32, ptr %24, align 4, !tbaa !34
  %133 = load i32, ptr %22, align 4, !tbaa !34
  %134 = sub nsw i32 %132, %133
  %135 = sext i32 %134 to i64
  %136 = getelementptr inbounds float, ptr %131, i64 %135
  %137 = load float, ptr %136, align 4, !tbaa !51
  %138 = fpext nsz float %137 to double
  %139 = call nsz double @llvm.fmuladd.f64(double %125, double %130, double %138)
  %140 = fptrunc nsz double %139 to float
  store float %140, ptr %136, align 4, !tbaa !51
  br label %141

141:                                              ; preds = %123
  %142 = load i32, ptr %22, align 4, !tbaa !34
  %143 = add nsw i32 %142, 1
  store i32 %143, ptr %22, align 4, !tbaa !34
  br label %119, !llvm.loop !88

144:                                              ; preds = %119
  br label %145

145:                                              ; preds = %144, %117
  %146 = load i32, ptr %24, align 4, !tbaa !34
  %147 = load i32, ptr %15, align 4, !tbaa !34
  %148 = add nsw i32 %146, %147
  store i32 %148, ptr %20, align 4, !tbaa !34
  call void @llvm.lifetime.end.p0(i64 4, ptr %24) #12
  call void @llvm.lifetime.end.p0(i64 4, ptr %23) #12
  br label %149

149:                                              ; preds = %145
  %150 = load i32, ptr %21, align 4, !tbaa !34
  %151 = add nsw i32 %150, 1
  store i32 %151, ptr %21, align 4, !tbaa !34
  br label %42, !llvm.loop !89

152:                                              ; preds = %42
  call void @llvm.lifetime.end.p0(i64 4, ptr %22) #12
  call void @llvm.lifetime.end.p0(i64 4, ptr %21) #12
  call void @llvm.lifetime.end.p0(i64 4, ptr %20) #12
  call void @llvm.lifetime.end.p0(i64 4, ptr %19) #12
  ret void
}