; Function Attrs: nofree norecurse nosync nounwind memory(read, argmem: readwrite, inaccessiblemem: none) uwtable
define internal fastcc void @twiddle(ptr noundef readonly captures(none) %0, ptr noundef captures(none) %1, i32 noundef range(i32 16, 257) %2, ptr noundef readonly captures(none) %3, i32 noundef range(i32 10, 85) %4, i32 noundef range(i32 2, 5) %5, i32 noundef range(i32 1, 17) %6, i32 noundef range(i32 1, 12) %7, ptr noundef readonly captures(none) %8) unnamed_addr #7 {
  %10 = load ptr, ptr %8, align 8, !tbaa !62
  %11 = zext nneg i32 %4 to i64
  %wide.trip.count.i = zext nneg i32 %6 to i64
  br label %.preheader49.i

.preheader49.i:                                   ; preds = %19, %9
  %indvars.iv58.i = phi i64 [ 0, %9 ], [ %indvars.iv.next59.i, %19 ]
  %invariant.gep.i = getelementptr inbounds nuw double, ptr %10, i64 %indvars.iv58.i
  br label %12

12:                                               ; preds = %12, %.preheader49.i
  %indvars.iv.i = phi i64 [ 0, %.preheader49.i ], [ %indvars.iv.next.i, %12 ]
  %.04351.i = phi double [ 0.000000e+00, %.preheader49.i ], [ %18, %12 ]
  %13 = getelementptr inbounds nuw float, ptr %0, i64 %indvars.iv.i
  %14 = load float, ptr %13, align 4, !tbaa !42
  %15 = fpext nsz float %14 to double
  %16 = mul nuw nsw i64 %indvars.iv.i, %11
  %gep.i = getelementptr inbounds nuw double, ptr %invariant.gep.i, i64 %16
  %17 = load double, ptr %gep.i, align 8, !tbaa !64
  %18 = tail call nsz double @llvm.fmuladd.f64(double %15, double %17, double %.04351.i)
  %indvars.iv.next.i = add nuw nsw i64 %indvars.iv.i, 1
  %exitcond.not.i = icmp eq i64 %indvars.iv.next.i, %wide.trip.count.i
  br i1 %exitcond.not.i, label %19, label %12, !llvm.loop !66

19:                                               ; preds = %12
  %20 = getelementptr inbounds nuw float, ptr %1, i64 %indvars.iv58.i
  %21 = load float, ptr %20, align 4, !tbaa !42
  %22 = fpext nsz float %21 to double
  %23 = fadd nsz double %18, %22
  %24 = fptrunc nsz double %23 to float
  store float %24, ptr %20, align 4, !tbaa !42
  %indvars.iv.next59.i = add nuw nsw i64 %indvars.iv58.i, 1
  %exitcond62.not.i = icmp eq i64 %indvars.iv.next59.i, %11
  br i1 %exitcond62.not.i, label %25, label %.preheader49.i, !llvm.loop !67

25:                                               ; preds = %19
  %26 = sub nsw i32 %2, %4
  %.lhs.trunc = trunc nsw i32 %26 to i16
  %.rhs.trunc = trunc nuw nsw i32 %5 to i16
  %27 = sdiv i16 %.lhs.trunc, %.rhs.trunc
  %28 = zext nneg i32 %2 to i64
  %29 = getelementptr inbounds nuw float, ptr %1, i64 %28
  %30 = sub nsw i64 0, %11
  %31 = getelementptr inbounds float, ptr %29, i64 %30
  %32 = getelementptr inbounds nuw ptr, ptr %8, i64 %wide.trip.count.i
  %33 = load ptr, ptr %32, align 8, !tbaa !62
  %34 = sext i16 %27 to i64
  %35 = getelementptr inbounds float, ptr %0, i64 %34
  %36 = getelementptr inbounds nuw i8, ptr %35, i64 4
  %37 = getelementptr inbounds nuw float, ptr %36, i64 %wide.trip.count.i
  %wide.trip.count66.i = zext nneg i32 %7 to i64
  br label %.preheader.i

.preheader.i:                                     ; preds = %45, %25
  %indvars.iv68.i = phi i64 [ 0, %25 ], [ %indvars.iv.next69.i, %45 ]
  %invariant.gep74.i = getelementptr inbounds nuw double, ptr %33, i64 %indvars.iv68.i
  br label %38

38:                                               ; preds = %38, %.preheader.i
  %indvars.iv63.i = phi i64 [ 0, %.preheader.i ], [ %indvars.iv.next64.i, %38 ]
  %.054.i = phi double [ 0.000000e+00, %.preheader.i ], [ %44, %38 ]
  %39 = getelementptr inbounds nuw float, ptr %37, i64 %indvars.iv63.i
  %40 = load float, ptr %39, align 4, !tbaa !42
  %41 = fpext nsz float %40 to double
  %42 = mul nuw nsw i64 %indvars.iv63.i, %11
  %gep75.i = getelementptr inbounds nuw double, ptr %invariant.gep74.i, i64 %42
  %43 = load double, ptr %gep75.i, align 8, !tbaa !64
  %44 = tail call nsz double @llvm.fmuladd.f64(double %41, double %43, double %.054.i)
  %indvars.iv.next64.i = add nuw nsw i64 %indvars.iv63.i, 1
  %exitcond67.not.i = icmp eq i64 %indvars.iv.next64.i, %wide.trip.count66.i
  br i1 %exitcond67.not.i, label %45, label %38, !llvm.loop !68

45:                                               ; preds = %38
  %46 = getelementptr inbounds nuw float, ptr %31, i64 %indvars.iv68.i
  %47 = load float, ptr %46, align 4, !tbaa !42
  %48 = fpext nsz float %47 to double
  %49 = fadd nsz double %44, %48
  %50 = fptrunc nsz double %49 to float
  store float %50, ptr %46, align 4, !tbaa !42
  %indvars.iv.next69.i = add nuw nsw i64 %indvars.iv68.i, 1
  %exitcond72.not.i = icmp eq i64 %indvars.iv.next69.i, %11
  br i1 %exitcond72.not.i, label %pretwiddle.exit, label %.preheader.i, !llvm.loop !69

pretwiddle.exit:                                  ; preds = %45
  %.not67 = icmp slt i16 %27, 0
  br i1 %.not67, label %._crit_edge, label %.lr.ph70

.lr.ph70:                                         ; preds = %pretwiddle.exit
  %51 = add nsw i32 %4, -1
  %52 = add nsw i32 %2, -1
  %53 = zext nneg i32 %2 to i64
  %narrow = add nuw i16 %27, 1
  %wide.trip.count85 = zext i16 %narrow to i64
  %invariant.gep91 = getelementptr inbounds nuw float, ptr %0, i64 %wide.trip.count.i
  %invariant.gep92 = getelementptr i8, ptr %3, i64 8
  %54 = getelementptr float, ptr %1, i64 %53
  br label %55

55:                                               ; preds = %.lr.ph70, %.loopexit
  %indvars.iv82 = phi i64 [ 0, %.lr.ph70 ], [ %indvars.iv.next83, %.loopexit ]
  %.05169 = phi i32 [ %51, %.lr.ph70 ], [ %89, %.loopexit ]
  %gep = getelementptr inbounds nuw float, ptr %invariant.gep91, i64 %indvars.iv82
  %56 = load float, ptr %gep, align 4, !tbaa !42
  %57 = and i32 %.05169, %52
  %58 = icmp slt i32 %57, %4
  %59 = fpext nsz float %56 to double
  %60 = zext nneg i32 %57 to i64
  br i1 %58, label %.lr.ph, label %.preheader59

.preheader:                                       ; preds = %.lr.ph
  %61 = xor i32 %57, -1
  %62 = add nsw i32 %4, %61
  %63 = icmp sgt i32 %62, 0
  br i1 %63, label %.lr.ph66, label %.loopexit

.lr.ph66:                                         ; preds = %.preheader
  %64 = fpext nsz float %56 to double
  %wide.trip.count80 = zext nneg i32 %62 to i64
  %65 = sext i32 %57 to i64
  %gep93 = getelementptr double, ptr %invariant.gep92, i64 %65
  br label %73

.lr.ph:                                           ; preds = %55, %.lr.ph
  %indvars.iv74 = phi i64 [ %indvars.iv.next75, %.lr.ph ], [ %60, %55 ]
  %.064 = phi ptr [ %66, %.lr.ph ], [ %3, %55 ]
  %66 = getelementptr inbounds nuw i8, ptr %.064, i64 8
  %67 = load double, ptr %.064, align 8, !tbaa !64
  %68 = getelementptr inbounds nuw float, ptr %1, i64 %indvars.iv74
  %69 = load float, ptr %68, align 4, !tbaa !42
  %70 = fpext nsz float %69 to double
  %71 = tail call nsz double @llvm.fmuladd.f64(double %59, double %67, double %70)
  %72 = fptrunc nsz double %71 to float
  store float %72, ptr %68, align 4, !tbaa !42
  %indvars.iv.next75 = add nsw i64 %indvars.iv74, -1
  %.not = icmp eq i64 %indvars.iv74, 0
  br i1 %.not, label %.preheader, label %.lr.ph, !llvm.loop !70

73:                                               ; preds = %.lr.ph66, %73
  %indvars.iv77 = phi i64 [ 0, %.lr.ph66 ], [ %indvars.iv.next78, %73 ]
  %gep90 = getelementptr double, ptr %gep93, i64 %indvars.iv77
  %74 = load double, ptr %gep90, align 8, !tbaa !64
  %75 = xor i64 %indvars.iv77, -1
  %76 = getelementptr float, ptr %54, i64 %75
  %77 = load float, ptr %76, align 4, !tbaa !42
  %78 = fpext nsz float %77 to double
  %79 = tail call nsz double @llvm.fmuladd.f64(double %64, double %74, double %78)
  %80 = fptrunc nsz double %79 to float
  store float %80, ptr %76, align 4, !tbaa !42
  %indvars.iv.next78 = add nuw nsw i64 %indvars.iv77, 1
  %exitcond81.not = icmp eq i64 %indvars.iv.next78, %wide.trip.count80
  br i1 %exitcond81.not, label %.loopexit, label %73, !llvm.loop !71

.preheader59:                                     ; preds = %55, %.preheader59
  %indvars.iv = phi i64 [ %indvars.iv.next, %.preheader59 ], [ 0, %55 ]
  %81 = getelementptr inbounds nuw double, ptr %3, i64 %indvars.iv
  %82 = load double, ptr %81, align 8, !tbaa !64
  %83 = sub nsw i64 %60, %indvars.iv
  %84 = getelementptr inbounds float, ptr %1, i64 %83
  %85 = load float, ptr %84, align 4, !tbaa !42
  %86 = fpext nsz float %85 to double
  %87 = tail call nsz double @llvm.fmuladd.f64(double %59, double %82, double %86)
  %88 = fptrunc nsz double %87 to float
  store float %88, ptr %84, align 4, !tbaa !42
  %indvars.iv.next = add nuw nsw i64 %indvars.iv, 1
  %exitcond.not = icmp eq i64 %indvars.iv.next, %11
  br i1 %exitcond.not, label %.loopexit, label %.preheader59, !llvm.loop !72

.loopexit:                                        ; preds = %.preheader59, %73, %.preheader
  %89 = add nuw nsw i32 %57, %5
  %indvars.iv.next83 = add nuw nsw i64 %indvars.iv82, 1
  %exitcond86.not = icmp eq i64 %indvars.iv.next83, %wide.trip.count85
  br i1 %exitcond86.not, label %._crit_edge, label %55, !llvm.loop !73

._crit_edge:                                      ; preds = %.loopexit, %pretwiddle.exit
  ret void
}